; ModuleID = '20/506.c'
source_filename = "20/506.c"
target datalayout = "e-m:e-p270:32:32-p271:32:32-p272:64:64-i64:64-f80:128-n8:16:32:64-S128"
target triple = "x86_64-pc-linux-gnu"

@.str = private unnamed_addr constant [5 x i8] c"%s%s\00", align 1
@.str.1 = private unnamed_addr constant [4 x i8] c"%s\0A\00", align 1

; Function Attrs: noinline nounwind uwtable
define dso_local i32 @count(i8* %0, i32 %1) #0 {
  %3 = alloca i8*, align 8
  %4 = alloca i32, align 4
  %5 = alloca i32, align 4
  %6 = alloca i32, align 4
  store i8* %0, i8** %3, align 8
  store i32 %1, i32* %4, align 4
  store i32 0, i32* %6, align 4
  store i32 0, i32* %5, align 4
  br label %7

7:                                                ; preds = %28, %2
  %8 = load i32, i32* %5, align 4
  %9 = load i32, i32* %4, align 4
  %10 = icmp slt i32 %8, %9
  br i1 %10, label %11, label %31

11:                                               ; preds = %7
  %12 = load i8*, i8** %3, align 8
  %13 = load i32, i32* %5, align 4
  %14 = sext i32 %13 to i64
  %15 = getelementptr inbounds i8, i8* %12, i64 %14
  %16 = load i8, i8* %15, align 1
  %17 = sext i8 %16 to i32
  %18 = load i8*, i8** %3, align 8
  %19 = load i32, i32* %6, align 4
  %20 = sext i32 %19 to i64
  %21 = getelementptr inbounds i8, i8* %18, i64 %20
  %22 = load i8, i8* %21, align 1
  %23 = sext i8 %22 to i32
  %24 = icmp sgt i32 %17, %23
  br i1 %24, label %25, label %27

25:                                               ; preds = %11
  %26 = load i32, i32* %5, align 4
  store i32 %26, i32* %6, align 4
  br label %27

27:                                               ; preds = %25, %11
  br label %28

28:                                               ; preds = %27
  %29 = load i32, i32* %5, align 4
  %30 = add nsw i32 %29, 1
  store i32 %30, i32* %5, align 4
  br label %7

31:                                               ; preds = %7
  %32 = load i32, i32* %6, align 4
  ret i32 %32
}

; Function Attrs: noinline nounwind uwtable
define dso_local void @main() #0 {
  %1 = alloca i32, align 4
  %2 = alloca i32, align 4
  %3 = alloca i32, align 4
  %4 = alloca [14 x i8], align 1
  %5 = alloca [11 x i8], align 1
  %6 = alloca [4 x i8], align 1
  br label %7

7:                                                ; preds = %76, %0
  %8 = getelementptr inbounds [11 x i8], [11 x i8]* %5, i64 0, i64 0
  %9 = getelementptr inbounds [4 x i8], [4 x i8]* %6, i64 0, i64 0
  %10 = call i32 (i8*, ...) @__isoc99_scanf(i8* getelementptr inbounds ([5 x i8], [5 x i8]* @.str, i64 0, i64 0), i8* %8, i8* %9)
  %11 = icmp ne i32 %10, -1
  br i1 %11, label %12, label %83

12:                                               ; preds = %7
  %13 = getelementptr inbounds [11 x i8], [11 x i8]* %5, i64 0, i64 0
  %14 = call i64 @strlen(i8* %13) #3
  %15 = trunc i64 %14 to i32
  store i32 %15, i32* %2, align 4
  %16 = getelementptr inbounds [11 x i8], [11 x i8]* %5, i64 0, i64 0
  %17 = load i32, i32* %2, align 4
  %18 = call i32 @count(i8* %16, i32 %17)
  store i32 %18, i32* %1, align 4
  store i32 0, i32* %3, align 4
  br label %19

19:                                               ; preds = %31, %12
  %20 = load i32, i32* %3, align 4
  %21 = load i32, i32* %1, align 4
  %22 = icmp sle i32 %20, %21
  br i1 %22, label %23, label %34

23:                                               ; preds = %19
  %24 = load i32, i32* %3, align 4
  %25 = sext i32 %24 to i64
  %26 = getelementptr inbounds [11 x i8], [11 x i8]* %5, i64 0, i64 %25
  %27 = load i8, i8* %26, align 1
  %28 = load i32, i32* %3, align 4
  %29 = sext i32 %28 to i64
  %30 = getelementptr inbounds [14 x i8], [14 x i8]* %4, i64 0, i64 %29
  store i8 %27, i8* %30, align 1
  br label %31

31:                                               ; preds = %23
  %32 = load i32, i32* %3, align 4
  %33 = add nsw i32 %32, 1
  store i32 %33, i32* %3, align 4
  br label %19

34:                                               ; preds = %19
  %35 = load i32, i32* %1, align 4
  %36 = add nsw i32 %35, 1
  store i32 %36, i32* %3, align 4
  br label %37

37:                                               ; preds = %53, %34
  %38 = load i32, i32* %3, align 4
  %39 = load i32, i32* %1, align 4
  %40 = add nsw i32 %39, 3
  %41 = icmp sle i32 %38, %40
  br i1 %41, label %42, label %56

42:                                               ; preds = %37
  %43 = load i32, i32* %3, align 4
  %44 = load i32, i32* %1, align 4
  %45 = sub nsw i32 %43, %44
  %46 = sub nsw i32 %45, 1
  %47 = sext i32 %46 to i64
  %48 = getelementptr inbounds [4 x i8], [4 x i8]* %6, i64 0, i64 %47
  %49 = load i8, i8* %48, align 1
  %50 = load i32, i32* %3, align 4
  %51 = sext i32 %50 to i64
  %52 = getelementptr inbounds [14 x i8], [14 x i8]* %4, i64 0, i64 %51
  store i8 %49, i8* %52, align 1
  br label %53

53:                                               ; preds = %42
  %54 = load i32, i32* %3, align 4
  %55 = add nsw i32 %54, 1
  store i32 %55, i32* %3, align 4
  br label %37

56:                                               ; preds = %37
  %57 = load i32, i32* %1, align 4
  %58 = add nsw i32 %57, 4
  store i32 %58, i32* %3, align 4
  br label %59

59:                                               ; preds = %73, %56
  %60 = load i32, i32* %3, align 4
  %61 = load i32, i32* %2, align 4
  %62 = add nsw i32 %61, 2
  %63 = icmp sle i32 %60, %62
  br i1 %63, label %64, label %76

64:                                               ; preds = %59
  %65 = load i32, i32* %3, align 4
  %66 = sub nsw i32 %65, 3
  %67 = sext i32 %66 to i64
  %68 = getelementptr inbounds [11 x i8], [11 x i8]* %5, i64 0, i64 %67
  %69 = load i8, i8* %68, align 1
  %70 = load i32, i32* %3, align 4
  %71 = sext i32 %70 to i64
  %72 = getelementptr inbounds [14 x i8], [14 x i8]* %4, i64 0, i64 %71
  store i8 %69, i8* %72, align 1
  br label %73

73:                                               ; preds = %64
  %74 = load i32, i32* %3, align 4
  %75 = add nsw i32 %74, 1
  store i32 %75, i32* %3, align 4
  br label %59

76:                                               ; preds = %59
  %77 = load i32, i32* %2, align 4
  %78 = add nsw i32 %77, 3
  %79 = sext i32 %78 to i64
  %80 = getelementptr inbounds [14 x i8], [14 x i8]* %4, i64 0, i64 %79
  store i8 0, i8* %80, align 1
  %81 = getelementptr inbounds [14 x i8], [14 x i8]* %4, i64 0, i64 0
  %82 = call i32 (i8*, ...) @printf(i8* getelementptr inbounds ([4 x i8], [4 x i8]* @.str.1, i64 0, i64 0), i8* %81)
  br label %7

83:                                               ; preds = %7
  ret void
}

declare dso_local i32 @__isoc99_scanf(i8*, ...) #1

; Function Attrs: nounwind readonly
declare dso_local i64 @strlen(i8*) #2

declare dso_local i32 @printf(i8*, ...) #1


!llvm.module.flags = !{!0}
!llvm.ident = !{!1}

!0 = !{i32 1, !"wchar_size", i32 4}
!1 = !{!"clang version 10.0.0-4ubuntu1 "}
