; ModuleID = 'source-C-CXX/19/506.c'
source_filename = "source-C-CXX/19/506.c"
target datalayout = "e-m:e-p270:32:32-p271:32:32-p272:64:64-i64:64-f80:128-n8:16:32:64-S128"
target triple = "x86_64-pc-linux-gnu"

@.str = private unnamed_addr constant [5 x i8] c"%s%s\00", align 1

; Function Attrs: nofree norecurse nosync nounwind readonly sspstrong uwtable
define dso_local i32 @count(i8* nocapture readonly %0, i32 %1) local_unnamed_addr #0 {
  %3 = icmp sgt i32 %1, 0
  br i1 %3, label %4, label %73

4:                                                ; preds = %2
  %5 = zext i32 %1 to i64
  %6 = add nsw i64 %5, -1
  %7 = and i64 %5, 3
  %8 = icmp ult i64 %6, 3
  br i1 %8, label %53, label %9

9:                                                ; preds = %4
  %10 = and i64 %5, 4294967292
  br label %11

11:                                               ; preds = %11, %9
  %12 = phi i64 [ 0, %9 ], [ %50, %11 ]
  %13 = phi i32 [ 0, %9 ], [ %49, %11 ]
  %14 = phi i64 [ %10, %9 ], [ %51, %11 ]
  %15 = getelementptr inbounds i8, i8* %0, i64 %12
  %16 = load i8, i8* %15, align 1, !tbaa !5
  %17 = sext i32 %13 to i64
  %18 = getelementptr inbounds i8, i8* %0, i64 %17
  %19 = load i8, i8* %18, align 1, !tbaa !5
  %20 = icmp sgt i8 %16, %19
  %21 = trunc i64 %12 to i32
  %22 = select i1 %20, i32 %21, i32 %13
  %23 = or i64 %12, 1
  %24 = getelementptr inbounds i8, i8* %0, i64 %23
  %25 = load i8, i8* %24, align 1, !tbaa !5
  %26 = sext i32 %22 to i64
  %27 = getelementptr inbounds i8, i8* %0, i64 %26
  %28 = load i8, i8* %27, align 1, !tbaa !5
  %29 = icmp sgt i8 %25, %28
  %30 = trunc i64 %23 to i32
  %31 = select i1 %29, i32 %30, i32 %22
  %32 = or i64 %12, 2
  %33 = getelementptr inbounds i8, i8* %0, i64 %32
  %34 = load i8, i8* %33, align 1, !tbaa !5
  %35 = sext i32 %31 to i64
  %36 = getelementptr inbounds i8, i8* %0, i64 %35
  %37 = load i8, i8* %36, align 1, !tbaa !5
  %38 = icmp sgt i8 %34, %37
  %39 = trunc i64 %32 to i32
  %40 = select i1 %38, i32 %39, i32 %31
  %41 = or i64 %12, 3
  %42 = getelementptr inbounds i8, i8* %0, i64 %41
  %43 = load i8, i8* %42, align 1, !tbaa !5
  %44 = sext i32 %40 to i64
  %45 = getelementptr inbounds i8, i8* %0, i64 %44
  %46 = load i8, i8* %45, align 1, !tbaa !5
  %47 = icmp sgt i8 %43, %46
  %48 = trunc i64 %41 to i32
  %49 = select i1 %47, i32 %48, i32 %40
  %50 = add nuw nsw i64 %12, 4
  %51 = add i64 %14, -4
  %52 = icmp eq i64 %51, 0
  br i1 %52, label %53, label %11, !llvm.loop !8

53:                                               ; preds = %11, %4
  %54 = phi i32 [ undef, %4 ], [ %49, %11 ]
  %55 = phi i64 [ 0, %4 ], [ %50, %11 ]
  %56 = phi i32 [ 0, %4 ], [ %49, %11 ]
  %57 = icmp eq i64 %7, 0
  br i1 %57, label %73, label %58

58:                                               ; preds = %53, %58
  %59 = phi i64 [ %70, %58 ], [ %55, %53 ]
  %60 = phi i32 [ %69, %58 ], [ %56, %53 ]
  %61 = phi i64 [ %71, %58 ], [ %7, %53 ]
  %62 = getelementptr inbounds i8, i8* %0, i64 %59
  %63 = load i8, i8* %62, align 1, !tbaa !5
  %64 = sext i32 %60 to i64
  %65 = getelementptr inbounds i8, i8* %0, i64 %64
  %66 = load i8, i8* %65, align 1, !tbaa !5
  %67 = icmp sgt i8 %63, %66
  %68 = trunc i64 %59 to i32
  %69 = select i1 %67, i32 %68, i32 %60
  %70 = add nuw nsw i64 %59, 1
  %71 = add i64 %61, -1
  %72 = icmp eq i64 %71, 0
  br i1 %72, label %73, label %58, !llvm.loop !10

73:                                               ; preds = %53, %58, %2
  %74 = phi i32 [ 0, %2 ], [ %54, %53 ], [ %69, %58 ]
  ret i32 %74
}

; Function Attrs: argmemonly mustprogress nofree nosync nounwind willreturn
declare void @llvm.lifetime.start.p0i8(i64 immarg, i8* nocapture) #1

; Function Attrs: argmemonly mustprogress nofree nosync nounwind willreturn
declare void @llvm.lifetime.end.p0i8(i64 immarg, i8* nocapture) #1

; Function Attrs: nofree nounwind sspstrong uwtable
define dso_local void @main() local_unnamed_addr #2 {
  %1 = alloca [14 x i8], align 1
  %2 = getelementptr inbounds [14 x i8], [14 x i8]* %1, i64 0, i64 0
  %3 = alloca [11 x i8], align 1
  %4 = getelementptr inbounds [11 x i8], [11 x i8]* %3, i64 0, i64 0
  %5 = alloca [4 x i8], align 1
  %6 = getelementptr inbounds [4 x i8], [4 x i8]* %5, i64 0, i64 0
  %7 = getelementptr inbounds [14 x i8], [14 x i8]* %1, i64 0, i64 0
  call void @llvm.lifetime.start.p0i8(i64 14, i8* nonnull %7) #8
  %8 = getelementptr inbounds [11 x i8], [11 x i8]* %3, i64 0, i64 0
  call void @llvm.lifetime.start.p0i8(i64 11, i8* nonnull %8) #8
  %9 = getelementptr inbounds [4 x i8], [4 x i8]* %5, i64 0, i64 0
  call void @llvm.lifetime.start.p0i8(i64 4, i8* nonnull %9) #8
  %10 = call i32 (i8*, ...) @__isoc99_scanf(i8* getelementptr inbounds ([5 x i8], [5 x i8]* @.str, i64 0, i64 0), i8* nonnull %8, i8* nonnull %9)
  %11 = icmp eq i32 %10, -1
  br i1 %11, label %123, label %12

12:                                               ; preds = %0
  %13 = getelementptr inbounds [14 x i8], [14 x i8]* %1, i64 0, i64 1
  %14 = getelementptr inbounds [11 x i8], [11 x i8]* %3, i64 0, i64 1
  br label %15

15:                                               ; preds = %12, %115
  %16 = call i64 @strlen(i8* noundef nonnull %8) #9
  %17 = trunc i64 %16 to i32
  %18 = icmp sgt i32 %17, 0
  br i1 %18, label %19, label %91

19:                                               ; preds = %15
  %20 = and i64 %16, 4294967295
  %21 = add nsw i64 %20, -1
  %22 = and i64 %16, 3
  %23 = icmp ult i64 %21, 3
  br i1 %23, label %68, label %24

24:                                               ; preds = %19
  %25 = sub nsw i64 %20, %22
  br label %26

26:                                               ; preds = %26, %24
  %27 = phi i64 [ 0, %24 ], [ %65, %26 ]
  %28 = phi i32 [ 0, %24 ], [ %64, %26 ]
  %29 = phi i64 [ %25, %24 ], [ %66, %26 ]
  %30 = getelementptr inbounds [11 x i8], [11 x i8]* %3, i64 0, i64 %27
  %31 = load i8, i8* %30, align 1, !tbaa !5
  %32 = sext i32 %28 to i64
  %33 = getelementptr inbounds [11 x i8], [11 x i8]* %3, i64 0, i64 %32
  %34 = load i8, i8* %33, align 1, !tbaa !5
  %35 = icmp sgt i8 %31, %34
  %36 = trunc i64 %27 to i32
  %37 = select i1 %35, i32 %36, i32 %28
  %38 = or i64 %27, 1
  %39 = getelementptr inbounds [11 x i8], [11 x i8]* %3, i64 0, i64 %38
  %40 = load i8, i8* %39, align 1, !tbaa !5
  %41 = sext i32 %37 to i64
  %42 = getelementptr inbounds [11 x i8], [11 x i8]* %3, i64 0, i64 %41
  %43 = load i8, i8* %42, align 1, !tbaa !5
  %44 = icmp sgt i8 %40, %43
  %45 = trunc i64 %38 to i32
  %46 = select i1 %44, i32 %45, i32 %37
  %47 = or i64 %27, 2
  %48 = getelementptr inbounds [11 x i8], [11 x i8]* %3, i64 0, i64 %47
  %49 = load i8, i8* %48, align 1, !tbaa !5
  %50 = sext i32 %46 to i64
  %51 = getelementptr inbounds [11 x i8], [11 x i8]* %3, i64 0, i64 %50
  %52 = load i8, i8* %51, align 1, !tbaa !5
  %53 = icmp sgt i8 %49, %52
  %54 = trunc i64 %47 to i32
  %55 = select i1 %53, i32 %54, i32 %46
  %56 = or i64 %27, 3
  %57 = getelementptr inbounds [11 x i8], [11 x i8]* %3, i64 0, i64 %56
  %58 = load i8, i8* %57, align 1, !tbaa !5
  %59 = sext i32 %55 to i64
  %60 = getelementptr inbounds [11 x i8], [11 x i8]* %3, i64 0, i64 %59
  %61 = load i8, i8* %60, align 1, !tbaa !5
  %62 = icmp sgt i8 %58, %61
  %63 = trunc i64 %56 to i32
  %64 = select i1 %62, i32 %63, i32 %55
  %65 = add nuw nsw i64 %27, 4
  %66 = add i64 %29, -4
  %67 = icmp eq i64 %66, 0
  br i1 %67, label %68, label %26, !llvm.loop !8

68:                                               ; preds = %26, %19
  %69 = phi i32 [ undef, %19 ], [ %64, %26 ]
  %70 = phi i64 [ 0, %19 ], [ %65, %26 ]
  %71 = phi i32 [ 0, %19 ], [ %64, %26 ]
  %72 = icmp eq i64 %22, 0
  br i1 %72, label %88, label %73

73:                                               ; preds = %68, %73
  %74 = phi i64 [ %85, %73 ], [ %70, %68 ]
  %75 = phi i32 [ %84, %73 ], [ %71, %68 ]
  %76 = phi i64 [ %86, %73 ], [ %22, %68 ]
  %77 = getelementptr inbounds [11 x i8], [11 x i8]* %3, i64 0, i64 %74
  %78 = load i8, i8* %77, align 1, !tbaa !5
  %79 = sext i32 %75 to i64
  %80 = getelementptr inbounds [11 x i8], [11 x i8]* %3, i64 0, i64 %79
  %81 = load i8, i8* %80, align 1, !tbaa !5
  %82 = icmp sgt i8 %78, %81
  %83 = trunc i64 %74 to i32
  %84 = select i1 %82, i32 %83, i32 %75
  %85 = add nuw nsw i64 %74, 1
  %86 = add i64 %76, -1
  %87 = icmp eq i64 %86, 0
  br i1 %87, label %88, label %73, !llvm.loop !12

88:                                               ; preds = %73, %68
  %89 = phi i32 [ %69, %68 ], [ %84, %73 ]
  %90 = icmp slt i32 %89, 0
  br i1 %90, label %95, label %91

91:                                               ; preds = %15, %88
  %92 = phi i32 [ %89, %88 ], [ 0, %15 ]
  %93 = zext i32 %92 to i64
  %94 = add nuw nsw i64 %93, 1
  call void @llvm.memcpy.p0i8.p0i8.i64(i8* noundef nonnull align 1 %2, i8* noundef nonnull align 1 %4, i64 %94, i1 false)
  br label %95

95:                                               ; preds = %91, %88
  %96 = phi i32 [ %92, %91 ], [ %89, %88 ]
  %97 = sext i32 %96 to i64
  %98 = getelementptr i8, i8* %13, i64 %97
  %99 = add i32 %96, 2
  %100 = call i32 @llvm.smax.i32(i32 %96, i32 %99)
  %101 = sub i32 %100, %96
  %102 = zext i32 %101 to i64
  %103 = add nuw nsw i64 %102, 1
  call void @llvm.memcpy.p0i8.p0i8.i64(i8* noundef nonnull align 1 dereferenceable(1) %98, i8* noundef nonnull align 1 %6, i64 %103, i1 false)
  %104 = add i32 %96, 4
  %105 = add nsw i32 %17, 2
  %106 = icmp sgt i32 %104, %105
  br i1 %106, label %115, label %107

107:                                              ; preds = %95
  %108 = sext i32 %104 to i64
  %109 = getelementptr [14 x i8], [14 x i8]* %1, i64 0, i64 %108
  %110 = getelementptr i8, i8* %14, i64 %97
  %111 = add i32 %17, -2
  %112 = sub i32 %111, %96
  %113 = zext i32 %112 to i64
  %114 = add nuw nsw i64 %113, 1
  call void @llvm.memcpy.p0i8.p0i8.i64(i8* noundef nonnull align 1 dereferenceable(1) %109, i8* noundef nonnull align 1 dereferenceable(1) %110, i64 %114, i1 false)
  br label %115

115:                                              ; preds = %107, %95
  %116 = shl i64 %16, 32
  %117 = add i64 %116, 12884901888
  %118 = ashr exact i64 %117, 32
  %119 = getelementptr inbounds [14 x i8], [14 x i8]* %1, i64 0, i64 %118
  store i8 0, i8* %119, align 1, !tbaa !5
  %120 = call i32 @puts(i8* nonnull %7)
  %121 = call i32 (i8*, ...) @__isoc99_scanf(i8* getelementptr inbounds ([5 x i8], [5 x i8]* @.str, i64 0, i64 0), i8* nonnull %8, i8* nonnull %9)
  %122 = icmp eq i32 %121, -1
  br i1 %122, label %123, label %15, !llvm.loop !13

123:                                              ; preds = %115, %0
  call void @llvm.lifetime.end.p0i8(i64 4, i8* nonnull %9) #8
  call void @llvm.lifetime.end.p0i8(i64 11, i8* nonnull %8) #8
  call void @llvm.lifetime.end.p0i8(i64 14, i8* nonnull %7) #8
  ret void
}

; Function Attrs: nofree nounwind
declare noundef i32 @__isoc99_scanf(i8* nocapture noundef readonly, ...) local_unnamed_addr #3

; Function Attrs: argmemonly mustprogress nofree nounwind readonly willreturn
declare i64 @strlen(i8* nocapture) local_unnamed_addr #4

; Function Attrs: nofree nounwind
declare noundef i32 @puts(i8* nocapture noundef readonly) local_unnamed_addr #5

; Function Attrs: argmemonly nofree nounwind willreturn
declare void @llvm.memcpy.p0i8.p0i8.i64(i8* noalias nocapture writeonly, i8* noalias nocapture readonly, i64, i1 immarg) #6

; Function Attrs: nofree nosync nounwind readnone speculatable willreturn
declare i32 @llvm.smax.i32(i32, i32) #7


!llvm.module.flags = !{!0, !1, !2, !3}
!llvm.ident = !{!4}

!0 = !{i32 1, !"wchar_size", i32 4}
!1 = !{i32 7, !"PIC Level", i32 2}
!2 = !{i32 7, !"PIE Level", i32 2}
!3 = !{i32 7, !"uwtable", i32 1}
!4 = !{!"clang version 13.0.0"}
!5 = !{!6, !6, i64 0}
!6 = !{!"omnipotent char", !7, i64 0}
!7 = !{!"Simple C/C++ TBAA"}
!8 = distinct !{!8, !9}
!9 = !{!"llvm.loop.mustprogress"}
!10 = distinct !{!10, !11}
!11 = !{!"llvm.loop.unroll.disable"}
!12 = distinct !{!12, !11}
!13 = distinct !{!13, !9}
